; ModuleID = 'source-C-CXX/46/4482.c'
source_filename = "source-C-CXX/46/4482.c"
target datalayout = "e-m:e-p270:32:32-p271:32:32-p272:64:64-i64:64-f80:128-n8:16:32:64-S128"
target triple = "x86_64-pc-linux-gnu"

@.str = private unnamed_addr constant [3 x i8] c"%d\00", align 1
@.str.1 = private unnamed_addr constant [4 x i8] c"%d \00", align 1

; Function Attrs: nofree norecurse nosync nounwind sspstrong uwtable
define dso_local i32 @change(i32* %0, i32* %1, i32 %2) local_unnamed_addr #0 {
  %4 = icmp ugt i32* %0, %1
  br i1 %4, label %13, label %5

5:                                                ; preds = %3, %5
  %6 = phi i32* [ %10, %5 ], [ %0, %3 ]
  %7 = phi i32* [ %11, %5 ], [ %1, %3 ]
  %8 = load i32, i32* %6, align 4, !tbaa !5
  %9 = load i32, i32* %7, align 4, !tbaa !5
  store i32 %9, i32* %6, align 4, !tbaa !5
  store i32 %8, i32* %7, align 4, !tbaa !5
  %10 = getelementptr inbounds i32, i32* %6, i64 1
  %11 = getelementptr inbounds i32, i32* %7, i64 -1
  %12 = icmp ugt i32* %10, %11
  br i1 %12, label %13, label %5, !llvm.loop !9

13:                                               ; preds = %5, %3
  ret i32 0
}

; Function Attrs: argmemonly mustprogress nofree nosync nounwind willreturn
declare void @llvm.lifetime.start.p0i8(i64 immarg, i8* nocapture) #1

; Function Attrs: argmemonly mustprogress nofree nosync nounwind willreturn
declare void @llvm.lifetime.end.p0i8(i64 immarg, i8* nocapture) #1

; Function Attrs: nofree nounwind sspstrong uwtable
define dso_local void @main() local_unnamed_addr #2 {
  %1 = alloca i32, align 4
  %2 = alloca [1000 x i32], align 16
  %3 = bitcast i32* %1 to i8*
  call void @llvm.lifetime.start.p0i8(i64 4, i8* nonnull %3) #4
  %4 = bitcast [1000 x i32]* %2 to i8*
  call void @llvm.lifetime.start.p0i8(i64 4000, i8* nonnull %4) #4
  %5 = call i32 (i8*, ...) @__isoc99_scanf(i8* getelementptr inbounds ([3 x i8], [3 x i8]* @.str, i64 0, i64 0), i32* nonnull %1)
  %6 = load i32, i32* %1, align 4, !tbaa !5
  %7 = icmp sgt i32 %6, 0
  br i1 %7, label %8, label %16

8:                                                ; preds = %0, %8
  %9 = phi i64 [ %12, %8 ], [ 0, %0 ]
  %10 = getelementptr inbounds [1000 x i32], [1000 x i32]* %2, i64 0, i64 %9
  %11 = call i32 (i8*, ...) @__isoc99_scanf(i8* getelementptr inbounds ([3 x i8], [3 x i8]* @.str, i64 0, i64 0), i32* nonnull %10)
  %12 = add nuw nsw i64 %9, 1
  %13 = load i32, i32* %1, align 4, !tbaa !5
  %14 = sext i32 %13 to i64
  %15 = icmp slt i64 %12, %14
  br i1 %15, label %8, label %16, !llvm.loop !11

16:                                               ; preds = %8, %0
  %17 = phi i32 [ %6, %0 ], [ %13, %8 ]
  %18 = sext i32 %17 to i64
  %19 = getelementptr inbounds [1000 x i32], [1000 x i32]* %2, i64 0, i64 0
  %20 = getelementptr inbounds [1000 x i32], [1000 x i32]* %2, i64 0, i64 %18
  %21 = getelementptr inbounds i32, i32* %20, i64 -1
  %22 = icmp ugt i32* %19, %21
  br i1 %22, label %31, label %23

23:                                               ; preds = %16, %23
  %24 = phi i32* [ %28, %23 ], [ %19, %16 ]
  %25 = phi i32* [ %29, %23 ], [ %21, %16 ]
  %26 = load i32, i32* %24, align 4, !tbaa !5
  %27 = load i32, i32* %25, align 4, !tbaa !5
  store i32 %27, i32* %24, align 4, !tbaa !5
  store i32 %26, i32* %25, align 4, !tbaa !5
  %28 = getelementptr inbounds i32, i32* %24, i64 1
  %29 = getelementptr inbounds i32, i32* %25, i64 -1
  %30 = icmp ugt i32* %28, %29
  br i1 %30, label %31, label %23, !llvm.loop !9

31:                                               ; preds = %23, %16
  %32 = icmp sgt i32 %17, 1
  br i1 %32, label %33, label %45

33:                                               ; preds = %31, %33
  %34 = phi i64 [ %38, %33 ], [ 0, %31 ]
  %35 = getelementptr inbounds [1000 x i32], [1000 x i32]* %2, i64 0, i64 %34
  %36 = load i32, i32* %35, align 4, !tbaa !5
  %37 = call i32 (i8*, ...) @printf(i8* nonnull dereferenceable(1) getelementptr inbounds ([4 x i8], [4 x i8]* @.str.1, i64 0, i64 0), i32 %36)
  %38 = add nuw nsw i64 %34, 1
  %39 = load i32, i32* %1, align 4, !tbaa !5
  %40 = add nsw i32 %39, -1
  %41 = sext i32 %40 to i64
  %42 = icmp slt i64 %38, %41
  br i1 %42, label %33, label %43, !llvm.loop !12

43:                                               ; preds = %33
  %44 = and i64 %38, 4294967295
  br label %45

45:                                               ; preds = %43, %31
  %46 = phi i64 [ 0, %31 ], [ %44, %43 ]
  %47 = getelementptr inbounds [1000 x i32], [1000 x i32]* %2, i64 0, i64 %46
  %48 = load i32, i32* %47, align 4, !tbaa !5
  %49 = call i32 (i8*, ...) @printf(i8* nonnull dereferenceable(1) getelementptr inbounds ([3 x i8], [3 x i8]* @.str, i64 0, i64 0), i32 %48)
  call void @llvm.lifetime.end.p0i8(i64 4000, i8* nonnull %4) #4
  call void @llvm.lifetime.end.p0i8(i64 4, i8* nonnull %3) #4
  ret void
}

; Function Attrs: nofree nounwind
declare noundef i32 @__isoc99_scanf(i8* nocapture noundef readonly, ...) local_unnamed_addr #3

; Function Attrs: nofree nounwind
declare noundef i32 @printf(i8* nocapture noundef readonly, ...) local_unnamed_addr #3


!llvm.module.flags = !{!0, !1, !2, !3}
!llvm.ident = !{!4}

!0 = !{i32 1, !"wchar_size", i32 4}
!1 = !{i32 7, !"PIC Level", i32 2}
!2 = !{i32 7, !"PIE Level", i32 2}
!3 = !{i32 7, !"uwtable", i32 1}
!4 = !{!"clang version 13.0.0"}
!5 = !{!6, !6, i64 0}
!6 = !{!"int", !7, i64 0}
!7 = !{!"omnipotent char", !8, i64 0}
!8 = !{!"Simple C/C++ TBAA"}
!9 = distinct !{!9, !10}
!10 = !{!"llvm.loop.mustprogress"}
!11 = distinct !{!11, !10}
!12 = distinct !{!12, !10}
